; Function Attrs: null_pointer_is_valid sspstrong uwtable
define hidden i32 @budb_dissect_principal(ptr noundef %0, i32 noundef %1, ptr noundef %2, ptr noundef %3, ptr noundef %4, ptr noundef %5, i32 noundef %6, i32 %7) local_unnamed_addr #0 {
  %9 = getelementptr inbounds nuw i8, ptr %4, i64 25
  %10 = load i8, ptr %9, align 1, !range !6, !noundef !7
  %11 = trunc nuw i8 %10 to i1
  %12 = and i32 %1, 3
  %.not = icmp eq i32 %12, 0
  %or.cond = or i1 %.not, %11
  %13 = and i32 %1, -4
  %14 = add i32 %13, 4
  %.0 = select i1 %or.cond, i32 %1, i32 %14
  %.not64 = icmp eq ptr %3, null
  br i1 %.not64, label %19, label %15

15:                                               ; preds = %8
  %16 = tail call ptr @proto_tree_add_item(ptr noundef nonnull %3, i32 noundef %6, ptr noundef %0, i32 noundef %.0, i32 noundef -1, i32 noundef 0)
  %17 = load i32, ptr @ett_budb_principal, align 4
  %18 = tail call ptr @proto_item_add_subtree(ptr noundef %16, i32 noundef %17)
  br label %19

19:                                               ; preds = %15, %8
  %.062 = phi ptr [ %16, %15 ], [ null, %8 ]
  %.061 = phi ptr [ %18, %15 ], [ null, %8 ]
  %20 = load i32, ptr @hf_budb_principal_name, align 4
  %21 = tail call i32 @dissect_ndr_vstring(ptr noundef %0, i32 noundef %.0, ptr noundef %2, ptr noundef %.061, ptr noundef %4, ptr noundef %5, i32 noundef 1, i32 noundef %20, i1 noundef zeroext false, ptr noundef null)
  %22 = load i32, ptr @hf_budb_principal_instance, align 4
  %23 = tail call i32 @dissect_ndr_vstring(ptr noundef %0, i32 noundef %21, ptr noundef %2, ptr noundef %.061, ptr noundef %4, ptr noundef %5, i32 noundef 1, i32 noundef %22, i1 noundef zeroext false, ptr noundef null)
  %24 = load i32, ptr @hf_budb_principal_cell, align 4
  %25 = tail call i32 @dissect_ndr_vstring(ptr noundef %0, i32 noundef %23, ptr noundef %2, ptr noundef %.061, ptr noundef %4, ptr noundef %5, i32 noundef 1, i32 noundef %24, i1 noundef zeroext false, ptr noundef null)
  %26 = load i32, ptr @hf_budb_principal_spare, align 4
  %27 = tail call i32 @dissect_ndr_vstring(ptr noundef %0, i32 noundef %25, ptr noundef %2, ptr noundef %.061, ptr noundef %4, ptr noundef %5, i32 noundef 1, i32 noundef %26, i1 noundef zeroext false, ptr noundef null)
  %28 = load i32, ptr @hf_budb_principal_spare1, align 4
  %29 = tail call i32 @dissect_ndr_uint32(ptr noundef %0, i32 noundef %27, ptr noundef %2, ptr noundef %.061, ptr noundef %4, ptr noundef %5, i32 noundef %28, ptr noundef null)
  %30 = load i32, ptr @hf_budb_principal_spare2, align 4
  %31 = tail call i32 @dissect_ndr_uint32(ptr noundef %0, i32 noundef %29, ptr noundef %2, ptr noundef %.061, ptr noundef %4, ptr noundef %5, i32 noundef %30, ptr noundef null)
  %32 = load i32, ptr @hf_budb_principal_spare3, align 4
  %33 = tail call i32 @dissect_ndr_uint32(ptr noundef %0, i32 noundef %31, ptr noundef %2, ptr noundef %.061, ptr noundef %4, ptr noundef %5, i32 noundef %32, ptr noundef null)
  %34 = load i32, ptr @hf_budb_principal_spare4, align 4
  %35 = tail call i32 @dissect_ndr_uint32(ptr noundef %0, i32 noundef %33, ptr noundef %2, ptr noundef %.061, ptr noundef %4, ptr noundef %5, i32 noundef %34, ptr noundef null)
  %36 = sub i32 %35, %.0
  tail call void @proto_item_set_len(ptr noundef %.062, i32 noundef %36)
  ret i32 %35
}